target datalayout = "e-m:e-p270:32:32-p271:32:32-p272:64:64-i64:64-i128:128-f80:128-n8:16:32:64-S128"
target triple = "x86_64-pc-linux-gnu"

%"class.Imf_3_4::CompressedIDManifest" = type { i32, i64, ptr }

; Function Attrs: mustprogress nounwind uwtable
define noundef nonnull align 8 dereferenceable(24) ptr @_ZN7Imf_3_420CompressedIDManifestaSERKS0_(ptr noundef nonnull align 8 dereferenceable(24) %0, ptr noundef nonnull align 8 dereferenceable(24) %1) #5 align 2 {
  %3 = alloca ptr, align 8
  %4 = alloca ptr, align 8
  store ptr %0, ptr %3, align 8, !tbaa !105
  store ptr %1, ptr %4, align 8, !tbaa !105
  %5 = load ptr, ptr %3, align 8
  %6 = load ptr, ptr %4, align 8, !tbaa !105
  %7 = icmp ne ptr %5, %6
  br i1 %7, label %8, label %38

8:                                                ; preds = %2
  %9 = getelementptr inbounds nuw %"class.Imf_3_4::CompressedIDManifest", ptr %5, i32 0, i32 2
  %10 = load ptr, ptr %9, align 8, !tbaa !110
  %11 = icmp ne ptr %10, null
  br i1 %11, label %12, label %15

12:                                               ; preds = %8
  %13 = getelementptr inbounds nuw %"class.Imf_3_4::CompressedIDManifest", ptr %5, i32 0, i32 2
  %14 = load ptr, ptr %13, align 8, !tbaa !110
  call void @free(ptr noundef %14) #3
  br label %15

15:                                               ; preds = %12, %8
  %16 = load ptr, ptr %4, align 8, !tbaa !105
  %17 = getelementptr inbounds nuw %"class.Imf_3_4::CompressedIDManifest", ptr %16, i32 0, i32 0
  %18 = load i32, ptr %17, align 8, !tbaa !109
  %19 = sext i32 %18 to i64
  %20 = call noalias ptr @malloc(i64 noundef %19) #24
  %21 = getelementptr inbounds nuw %"class.Imf_3_4::CompressedIDManifest", ptr %5, i32 0, i32 2
  store ptr %20, ptr %21, align 8, !tbaa !110
  %22 = load ptr, ptr %4, align 8, !tbaa !105
  %23 = getelementptr inbounds nuw %"class.Imf_3_4::CompressedIDManifest", ptr %22, i32 0, i32 0
  %24 = load i32, ptr %23, align 8, !tbaa !109
  %25 = getelementptr inbounds nuw %"class.Imf_3_4::CompressedIDManifest", ptr %5, i32 0, i32 0
  store i32 %24, ptr %25, align 8, !tbaa !109
  %26 = load ptr, ptr %4, align 8, !tbaa !105
  %27 = getelementptr inbounds nuw %"class.Imf_3_4::CompressedIDManifest", ptr %26, i32 0, i32 1
  %28 = load i64, ptr %27, align 8, !tbaa !107
  %29 = getelementptr inbounds nuw %"class.Imf_3_4::CompressedIDManifest", ptr %5, i32 0, i32 1
  store i64 %28, ptr %29, align 8, !tbaa !107
  %30 = getelementptr inbounds nuw %"class.Imf_3_4::CompressedIDManifest", ptr %5, i32 0, i32 2
  %31 = load ptr, ptr %30, align 8, !tbaa !110
  %32 = load ptr, ptr %4, align 8, !tbaa !105
  %33 = getelementptr inbounds nuw %"class.Imf_3_4::CompressedIDManifest", ptr %32, i32 0, i32 2
  %34 = load ptr, ptr %33, align 8, !tbaa !110
  %35 = getelementptr inbounds nuw %"class.Imf_3_4::CompressedIDManifest", ptr %5, i32 0, i32 0
  %36 = load i32, ptr %35, align 8, !tbaa !109
  %37 = sext i32 %36 to i64
  call void @llvm.memcpy.p0.p0.i64(ptr align 1 %31, ptr align 1 %34, i64 %37, i1 false)
  br label %38

38:                                               ; preds = %15, %2
  ret ptr %5
}