; Function Attrs: mustprogress nounwind willreturn uwtable
define noundef nonnull align 8 dereferenceable(24) ptr @_ZN7Imf_3_420CompressedIDManifestaSERKS0_(ptr noundef nonnull returned align 8 dereferenceable(24) %0, ptr noundef nonnull readonly align 8 dereferenceable(24) %1) local_unnamed_addr #16 align 2 {
  %.not = icmp eq ptr %0, %1
  br i1 %.not, label %16, label %3

3:                                                ; preds = %2
  %4 = getelementptr inbounds nuw i8, ptr %0, i64 16
  %5 = load ptr, ptr %4, align 8, !tbaa !105
  %.not8 = icmp eq ptr %5, null
  br i1 %.not8, label %7, label %6

6:                                                ; preds = %3
  tail call void @free(ptr noundef nonnull %5) #34
  br label %7

7:                                                ; preds = %6, %3
  %8 = load i32, ptr %1, align 8, !tbaa !104
  %9 = sext i32 %8 to i64
  %10 = tail call noalias ptr @malloc(i64 noundef %9) #40
  store ptr %10, ptr %4, align 8, !tbaa !105
  store i32 %8, ptr %0, align 8, !tbaa !104
  %11 = getelementptr inbounds nuw i8, ptr %1, i64 8
  %12 = load i64, ptr %11, align 8, !tbaa !102
  %13 = getelementptr inbounds nuw i8, ptr %0, i64 8
  store i64 %12, ptr %13, align 8, !tbaa !102
  %14 = getelementptr inbounds nuw i8, ptr %1, i64 16
  %15 = load ptr, ptr %14, align 8, !tbaa !105
  tail call void @llvm.memcpy.p0.p0.i64(ptr align 1 %10, ptr align 1 %15, i64 %9, i1 false)
  br label %16

16:                                               ; preds = %7, %2
  ret ptr %0
}